; Function Attrs: mustprogress null_pointer_is_valid sspstrong uwtable
define void @_ZN10ExtArgBool5valueEv(ptr dead_on_unwind noalias writable writeonly sret(%class.QString) align 8 captures(none) initializes((0, 24)) %0, ptr noundef readonly align 8 captures(none) dereferenceable_or_null(96) %1) unnamed_addr #0 align 2 personality ptr @__gxx_personality_v0 {
  %3 = alloca %class.QString, align 8
  %4 = getelementptr inbounds nuw i8, ptr %1, i64 88
  %5 = load ptr, ptr %4, align 8
  %6 = icmp eq ptr %5, null
  br i1 %6, label %13, label %7

7:                                                ; preds = %2
  %8 = getelementptr inbounds nuw i8, ptr %1, i64 40
  %9 = load ptr, ptr %8, align 8
  %10 = getelementptr inbounds nuw i8, ptr %9, i64 72
  %11 = load i32, ptr %10, align 8
  %12 = icmp eq i32 %11, 6
  br i1 %12, label %13, label %14

13:                                               ; preds = %7, %2
  tail call void @llvm.memset.p0.i64(ptr noundef align 8 dereferenceable(24) dereferenceable_or_null(24) %0, i8 0, i64 24, i1 false)
  br label %26

14:                                               ; preds = %7
  %15 = tail call noundef i32 @_ZNK9QCheckBox10checkStateEv(ptr noundef nonnull align 8 dereferenceable_or_null(40) %5)
  %16 = icmp eq i32 %15, 2
  %17 = select i1 %16, ptr @.str.4, ptr @.str.5
  call void @llvm.lifetime.start.p0(i64 24, ptr nonnull %3) #26
  %18 = select i1 %16, i64 4, i64 5
  call void @_ZN7QString8fromUtf8E14QByteArrayView(ptr dead_on_unwind nonnull writable sret(%class.QString) align 8 %3, i64 %18, ptr nonnull %17)
  %19 = load ptr, ptr %3, align 8
  store ptr %19, ptr %0, align 8
  %20 = getelementptr inbounds nuw i8, ptr %0, i64 8
  %21 = getelementptr inbounds nuw i8, ptr %3, i64 8
  %22 = load ptr, ptr %21, align 8
  store ptr %22, ptr %20, align 8
  %23 = getelementptr inbounds nuw i8, ptr %0, i64 16
  %24 = getelementptr inbounds nuw i8, ptr %3, i64 16
  %25 = load i64, ptr %24, align 8
  store i64 %25, ptr %23, align 8
  call void @llvm.lifetime.end.p0(i64 24, ptr nonnull %3) #26
  br label %26

26:                                               ; preds = %14, %13
  ret void
}